target datalayout = "e-m:e-p270:32:32-p271:32:32-p272:64:64-i64:64-i128:128-f80:128-n8:16:32:64-S128"
target triple = "x86_64-pc-linux-gnu"

%struct.pm_token_t = type { i32, ptr, ptr }
%struct.pm_parser = type { i32, i32, i32, i32, i32, i32, i32, %struct.anon, ptr, ptr, %struct.pm_token_t, %struct.pm_token_t, ptr, ptr, %struct.pm_list_t, %struct.pm_list_t, %struct.pm_location_t, %struct.pm_list_t, %struct.pm_list_t, ptr, ptr, ptr, ptr, ptr, ptr, ptr, %struct.pm_string_t, %struct.pm_constant_pool_t, %struct.pm_newline_list_t, i16, %struct.pm_string_t, i32, ptr, ptr, i32, i8, i8, i8, i8, i8, i8, i8, i8, i8, i8, i8, i8, i8 }
%struct.anon = type { ptr, [4 x %struct.pm_lex_mode], i64 }
%struct.pm_lex_mode = type { i32, %union.anon, ptr }
%union.anon = type { %struct.anon.3 }
%struct.anon.3 = type { %struct.pm_heredoc_lex_mode_t, ptr, ptr, i8 }
%struct.pm_heredoc_lex_mode_t = type { ptr, i64, i32, i32 }
%struct.pm_location_t = type { ptr, ptr }
%struct.pm_list_t = type { i64, ptr, ptr }
%struct.pm_constant_pool_t = type { ptr, ptr, i32, i32 }
%struct.pm_newline_list_t = type { ptr, i64, i64, ptr }
%struct.pm_string_t = type { ptr, i64, i32 }

@rb_cPrismSource = external global i64, align 8
@pm_source_new.rbimpl_id = internal global i64 0, align 8
@.str.3 = private unnamed_addr constant [4 x i8] c"for\00", align 1

; Function Attrs: inlinehint nounwind sspstrong willreturn memory(read) uwtable
define internal i64 @rb_intern_const(ptr noundef nonnull %0) #6 {
  %2 = alloca ptr, align 8
  %3 = alloca i64, align 8
  store ptr %0, ptr %2, align 8, !tbaa !27
  call void @llvm.lifetime.start.p0(i64 8, ptr %3) #13
  %4 = load ptr, ptr %2, align 8, !tbaa !27
  %5 = call i64 @strlen(ptr noundef %4) #17
  store i64 %5, ptr %3, align 8, !tbaa !15
  %6 = load ptr, ptr %2, align 8, !tbaa !27
  %7 = load i64, ptr %3, align 8, !tbaa !15
  %8 = call i64 @rb_intern2(ptr noundef %6, i64 noundef %7)
  call void @llvm.lifetime.end.p0(i64 8, ptr %3) #13
  ret i64 %8
}

; Function Attrs: inlinehint nounwind sspstrong willreturn memory(none) uwtable
define internal i64 @RB_INT2FIX(i64 noundef %0) #8 {
  %2 = alloca i64, align 8
  %3 = alloca i64, align 8
  %4 = alloca i64, align 8
  %5 = alloca i64, align 8
  %6 = alloca i64, align 8
  %7 = alloca i64, align 8
  store i64 %0, ptr %2, align 8, !tbaa !15
  call void @llvm.lifetime.start.p0(i64 8, ptr %3) #13
  %8 = load i64, ptr %2, align 8, !tbaa !15
  store i64 %8, ptr %3, align 8, !tbaa !15
  call void @llvm.lifetime.start.p0(i64 8, ptr %4) #13
  %9 = load i64, ptr %3, align 8, !tbaa !15
  %10 = shl i64 %9, 1
  %11 = add i64 %10, 1
  store i64 %11, ptr %4, align 8, !tbaa !15
  call void @llvm.lifetime.start.p0(i64 8, ptr %5) #13
  %12 = load i64, ptr %4, align 8, !tbaa !15
  store i64 %12, ptr %5, align 8, !tbaa !15
  call void @llvm.lifetime.start.p0(i64 8, ptr %6) #13
  %13 = load i64, ptr %5, align 8, !tbaa !15
  store i64 %13, ptr %6, align 8, !tbaa !15
  call void @llvm.lifetime.start.p0(i64 8, ptr %7) #13
  %14 = load i64, ptr %6, align 8, !tbaa !15
  store i64 %14, ptr %7, align 8, !tbaa !15
  %15 = load i64, ptr %7, align 8, !tbaa !15
  call void @llvm.lifetime.end.p0(i64 8, ptr %7) #13
  call void @llvm.lifetime.end.p0(i64 8, ptr %6) #13
  call void @llvm.lifetime.end.p0(i64 8, ptr %5) #13
  call void @llvm.lifetime.end.p0(i64 8, ptr %4) #13
  call void @llvm.lifetime.end.p0(i64 8, ptr %3) #13
  ret i64 %15
}

; Function Attrs: inlinehint nounwind sspstrong uwtable
define internal i64 @rb_long2num_inline(i64 noundef %0) #4 {
  %2 = alloca i64, align 8
  %3 = alloca i64, align 8
  store i64 %0, ptr %3, align 8, !tbaa !15
  %4 = load i64, ptr %3, align 8, !tbaa !15
  %5 = icmp slt i64 %4, 4611686018427387904
  br i1 %5, label %6, label %12

6:                                                ; preds = %1
  %7 = load i64, ptr %3, align 8, !tbaa !15
  %8 = icmp sge i64 %7, -4611686018427387904
  br i1 %8, label %9, label %12

9:                                                ; preds = %6
  %10 = load i64, ptr %3, align 8, !tbaa !15
  %11 = call i64 @RB_INT2FIX(i64 noundef %10) #14
  store i64 %11, ptr %2, align 8
  br label %15

12:                                               ; preds = %6, %1
  %13 = load i64, ptr %3, align 8, !tbaa !15
  %14 = call i64 @rb_int2big(i64 noundef %13)
  store i64 %14, ptr %2, align 8
  br label %15

15:                                               ; preds = %12, %9
  %16 = load i64, ptr %2, align 8
  ret i64 %16
}

; Function Attrs: inlinehint nounwind sspstrong memory(argmem: readwrite, inaccessiblemem: readwrite) uwtable
define internal i64 @rbimpl_intern_const(ptr noundef nonnull %0, ptr noundef nonnull %1) #5 {
  %3 = alloca ptr, align 8
  %4 = alloca ptr, align 8
  store ptr %0, ptr %3, align 8, !tbaa !54
  store ptr %1, ptr %4, align 8, !tbaa !27
  br label %5

5:                                                ; preds = %10, %2
  %6 = load ptr, ptr %3, align 8, !tbaa !54
  %7 = load i64, ptr %6, align 8, !tbaa !15
  %8 = icmp ne i64 %7, 0
  %9 = xor i1 %8, true
  br i1 %9, label %10, label %14

10:                                               ; preds = %5
  %11 = load ptr, ptr %4, align 8, !tbaa !27
  %12 = call i64 @rb_intern_const(ptr noundef %11) #17
  %13 = load ptr, ptr %3, align 8, !tbaa !54
  store i64 %12, ptr %13, align 8, !tbaa !15
  br label %5, !llvm.loop !55

14:                                               ; preds = %5
  %15 = load ptr, ptr %3, align 8, !tbaa !54
  %16 = load i64, ptr %15, align 8, !tbaa !15
  ret i64 %16
}

; Function Attrs: inlinehint nounwind sspstrong uwtable
define internal i64 @rb_ulong2num_inline(i64 noundef %0) #4 {
  %2 = alloca i64, align 8
  %3 = alloca i64, align 8
  store i64 %0, ptr %3, align 8, !tbaa !15
  %4 = load i64, ptr %3, align 8, !tbaa !15
  %5 = icmp ult i64 %4, 4611686018427387904
  br i1 %5, label %6, label %9

6:                                                ; preds = %1
  %7 = load i64, ptr %3, align 8, !tbaa !15
  %8 = call i64 @RB_INT2FIX(i64 noundef %7) #14
  store i64 %8, ptr %2, align 8
  br label %12

9:                                                ; preds = %1
  %10 = load i64, ptr %3, align 8, !tbaa !15
  %11 = call i64 @rb_uint2big(i64 noundef %10)
  store i64 %11, ptr %2, align 8
  br label %12

12:                                               ; preds = %9, %6
  %13 = load i64, ptr %2, align 8
  ret i64 %13
}

; Function Attrs: nounwind sspstrong uwtable
define hidden i64 @pm_source_new(ptr noundef %0, ptr noundef %1, i1 noundef zeroext %2) #0 {
  %4 = alloca ptr, align 8
  %5 = alloca ptr, align 8
  %6 = alloca i8, align 1
  %7 = alloca i64, align 8
  %8 = alloca i64, align 8
  %9 = alloca i64, align 8
  %10 = alloca i64, align 8
  %11 = alloca i64, align 8
  store ptr %0, ptr %4, align 8, !tbaa !7
  store ptr %1, ptr %5, align 8, !tbaa !13
  %12 = zext i1 %2 to i8
  store i8 %12, ptr %6, align 1, !tbaa !17
  call void @llvm.lifetime.start.p0(i64 8, ptr %7) #13
  br i1 false, label %13, label %24

13:                                               ; preds = %3
  %14 = load ptr, ptr %4, align 8, !tbaa !7
  %15 = getelementptr inbounds nuw %struct.pm_parser, ptr %14, i32 0, i32 9
  %16 = load ptr, ptr %15, align 8, !tbaa !56
  %17 = load ptr, ptr %4, align 8, !tbaa !7
  %18 = getelementptr inbounds nuw %struct.pm_parser, ptr %17, i32 0, i32 8
  %19 = load ptr, ptr %18, align 8, !tbaa !28
  %20 = ptrtoint ptr %16 to i64
  %21 = ptrtoint ptr %19 to i64
  %22 = sub i64 %20, %21
  %23 = call i1 @llvm.is.constant.i64(i64 %22)
  br label %24

24:                                               ; preds = %13, %3
  %25 = phi i1 [ false, %3 ], [ %23, %13 ]
  %26 = select i1 %25, ptr @rb_enc_str_new_static, ptr @rb_enc_str_new
  %27 = load ptr, ptr %4, align 8, !tbaa !7
  %28 = getelementptr inbounds nuw %struct.pm_parser, ptr %27, i32 0, i32 8
  %29 = load ptr, ptr %28, align 8, !tbaa !28
  %30 = load ptr, ptr %4, align 8, !tbaa !7
  %31 = getelementptr inbounds nuw %struct.pm_parser, ptr %30, i32 0, i32 9
  %32 = load ptr, ptr %31, align 8, !tbaa !56
  %33 = load ptr, ptr %4, align 8, !tbaa !7
  %34 = getelementptr inbounds nuw %struct.pm_parser, ptr %33, i32 0, i32 8
  %35 = load ptr, ptr %34, align 8, !tbaa !28
  %36 = ptrtoint ptr %32 to i64
  %37 = ptrtoint ptr %35 to i64
  %38 = sub i64 %36, %37
  %39 = load ptr, ptr %5, align 8, !tbaa !13
  %40 = call i64 %26(ptr noundef %29, i64 noundef %38, ptr noundef %39)
  store i64 %40, ptr %7, align 8, !tbaa !15
  call void @llvm.lifetime.start.p0(i64 8, ptr %8) #13
  %41 = load ptr, ptr %4, align 8, !tbaa !7
  %42 = getelementptr inbounds nuw %struct.pm_parser, ptr %41, i32 0, i32 28
  %43 = getelementptr inbounds nuw %struct.pm_newline_list_t, ptr %42, i32 0, i32 1
  %44 = load i64, ptr %43, align 8, !tbaa !57
  %45 = call i64 @rb_ary_new_capa(i64 noundef %44)
  store i64 %45, ptr %8, align 8, !tbaa !15
  call void @llvm.lifetime.start.p0(i64 8, ptr %9) #13
  store i64 0, ptr %9, align 8, !tbaa !15
  br label %46

46:                                               ; preds = %65, %24
  %47 = load i64, ptr %9, align 8, !tbaa !15
  %48 = load ptr, ptr %4, align 8, !tbaa !7
  %49 = getelementptr inbounds nuw %struct.pm_parser, ptr %48, i32 0, i32 28
  %50 = getelementptr inbounds nuw %struct.pm_newline_list_t, ptr %49, i32 0, i32 1
  %51 = load i64, ptr %50, align 8, !tbaa !57
  %52 = icmp ult i64 %47, %51
  br i1 %52, label %54, label %53

53:                                               ; preds = %46
  call void @llvm.lifetime.end.p0(i64 8, ptr %9) #13
  br label %68

54:                                               ; preds = %46
  %55 = load i64, ptr %8, align 8, !tbaa !15
  %56 = load ptr, ptr %4, align 8, !tbaa !7
  %57 = getelementptr inbounds nuw %struct.pm_parser, ptr %56, i32 0, i32 28
  %58 = getelementptr inbounds nuw %struct.pm_newline_list_t, ptr %57, i32 0, i32 3
  %59 = load ptr, ptr %58, align 8, !tbaa !58
  %60 = load i64, ptr %9, align 8, !tbaa !15
  %61 = getelementptr i64, ptr %59, i64 %60
  %62 = load i64, ptr %61, align 8, !tbaa !15
  %63 = call i64 @rb_ulong2num_inline(i64 noundef %62)
  %64 = call i64 @rb_ary_push(i64 noundef %55, i64 noundef %63)
  br label %65

65:                                               ; preds = %54
  %66 = load i64, ptr %9, align 8, !tbaa !15
  %67 = add i64 %66, 1
  store i64 %67, ptr %9, align 8, !tbaa !15
  br label %46, !llvm.loop !59

68:                                               ; preds = %53
  %69 = load i8, ptr %6, align 1, !tbaa !17, !range !25, !noundef !26
  %70 = trunc i8 %69 to i1
  br i1 %70, label %71, label %76

71:                                               ; preds = %68
  %72 = load i64, ptr %7, align 8, !tbaa !15
  %73 = call i64 @rb_obj_freeze(i64 noundef %72)
  %74 = load i64, ptr %8, align 8, !tbaa !15
  %75 = call i64 @rb_obj_freeze(i64 noundef %74)
  br label %76

76:                                               ; preds = %71, %68
  call void @llvm.lifetime.start.p0(i64 8, ptr %10) #13
  %77 = load i64, ptr @rb_cPrismSource, align 8, !tbaa !15
  %78 = call i64 @rbimpl_intern_const(ptr noundef @pm_source_new.rbimpl_id, ptr noundef @.str.3) #15
  store i64 %78, ptr %11, align 8, !tbaa !15
  %79 = load i64, ptr %11, align 8, !tbaa !15
  %80 = load i64, ptr %7, align 8, !tbaa !15
  %81 = load ptr, ptr %4, align 8, !tbaa !7
  %82 = getelementptr inbounds nuw %struct.pm_parser, ptr %81, i32 0, i32 31
  %83 = load i32, ptr %82, align 8, !tbaa !60
  %84 = sext i32 %83 to i64
  %85 = call i64 @rb_long2num_inline(i64 noundef %84)
  %86 = load i64, ptr %8, align 8, !tbaa !15
  %87 = call i64 (i64, i64, i32, ...) @rb_funcall(i64 noundef %77, i64 noundef %79, i32 noundef 3, i64 noundef %80, i64 noundef %85, i64 noundef %86)
  store i64 %87, ptr %10, align 8, !tbaa !15
  %88 = load i8, ptr %6, align 1, !tbaa !17, !range !25, !noundef !26
  %89 = trunc i8 %88 to i1
  br i1 %89, label %90, label %93

90:                                               ; preds = %76
  %91 = load i64, ptr %10, align 8, !tbaa !15
  %92 = call i64 @rb_obj_freeze(i64 noundef %91)
  br label %93

93:                                               ; preds = %90, %76
  %94 = load i64, ptr %10, align 8, !tbaa !15
  call void @llvm.lifetime.end.p0(i64 8, ptr %10) #13
  call void @llvm.lifetime.end.p0(i64 8, ptr %8) #13
  call void @llvm.lifetime.end.p0(i64 8, ptr %7) #13
  ret i64 %94
}