; Function Attrs: nounwind sspstrong uwtable
define hidden i64 @pm_source_new(ptr noundef readonly captures(none) %0, ptr noundef %1, i1 noundef zeroext %2) local_unnamed_addr #0 {
  %4 = getelementptr inbounds nuw i8, ptr %0, i64 304
  %5 = load ptr, ptr %4, align 8, !tbaa !18
  %6 = getelementptr inbounds nuw i8, ptr %0, i64 312
  %7 = load ptr, ptr %6, align 8, !tbaa !54
  %8 = ptrtoint ptr %7 to i64
  %9 = ptrtoint ptr %5 to i64
  %10 = sub i64 %8, %9
  %11 = tail call i64 @rb_enc_str_new(ptr noundef %5, i64 noundef %10, ptr noundef %1) #5
  %12 = getelementptr inbounds nuw i8, ptr %0, i64 608
  %13 = load i64, ptr %12, align 8, !tbaa !55
  %14 = tail call i64 @rb_ary_new_capa(i64 noundef %13) #5
  %15 = load i64, ptr %12, align 8, !tbaa !55
  %.not = icmp eq i64 %15, 0
  br i1 %.not, label %._crit_edge, label %.lr.ph

.lr.ph:                                           ; preds = %3
  %16 = getelementptr inbounds nuw i8, ptr %0, i64 624
  br label %17

._crit_edge:                                      ; preds = %rb_ulong2num_inline.exit, %3
  br i1 %2, label %31, label %34

17:                                               ; preds = %.lr.ph, %rb_ulong2num_inline.exit
  %.020 = phi i64 [ 0, %.lr.ph ], [ %28, %rb_ulong2num_inline.exit ]
  %18 = load ptr, ptr %16, align 8, !tbaa !56
  %19 = getelementptr i64, ptr %18, i64 %.020
  %20 = load i64, ptr %19, align 8, !tbaa !16
  %21 = icmp ult i64 %20, 4611686018427387904
  br i1 %21, label %22, label %25

22:                                               ; preds = %17
  %23 = shl nuw nsw i64 %20, 1
  %24 = or disjoint i64 %23, 1
  br label %rb_ulong2num_inline.exit

25:                                               ; preds = %17
  %26 = tail call i64 @rb_uint2big(i64 noundef %20) #5
  br label %rb_ulong2num_inline.exit

rb_ulong2num_inline.exit:                         ; preds = %22, %25
  %.0.i = phi i64 [ %24, %22 ], [ %26, %25 ]
  %27 = tail call i64 @rb_ary_push(i64 noundef %14, i64 noundef %.0.i) #5
  %28 = add nuw i64 %.020, 1
  %29 = load i64, ptr %12, align 8, !tbaa !55
  %30 = icmp ult i64 %28, %29
  br i1 %30, label %17, label %._crit_edge, !llvm.loop !57

31:                                               ; preds = %._crit_edge
  %32 = tail call i64 @rb_obj_freeze(i64 noundef %11) #5
  %33 = tail call i64 @rb_obj_freeze(i64 noundef %14) #5
  br label %34

34:                                               ; preds = %31, %._crit_edge
  %35 = load i64, ptr @rb_cPrismSource, align 8, !tbaa !16
  %.pr.i = load i64, ptr @pm_source_new.rbimpl_id, align 8, !tbaa !16
  %.not4.i = icmp eq i64 %.pr.i, 0
  br i1 %.not4.i, label %.lr.ph.i, label %rbimpl_intern_const.exit

.lr.ph.i:                                         ; preds = %34, %.lr.ph.i
  %36 = tail call i64 @rb_intern2(ptr noundef nonnull @.str.3, i64 noundef 3) #5
  store i64 %36, ptr @pm_source_new.rbimpl_id, align 8, !tbaa !16
  %.not.i = icmp eq i64 %36, 0
  br i1 %.not.i, label %.lr.ph.i, label %rbimpl_intern_const.exit, !llvm.loop !45

rbimpl_intern_const.exit:                         ; preds = %.lr.ph.i, %34
  %.lcssa.i = phi i64 [ %.pr.i, %34 ], [ %36, %.lr.ph.i ]
  %37 = getelementptr inbounds nuw i8, ptr %0, i64 664
  %38 = load i32, ptr %37, align 8, !tbaa !58
  %39 = sext i32 %38 to i64
  %40 = shl nsw i64 %39, 1
  %41 = or disjoint i64 %40, 1
  %42 = tail call i64 (i64, i64, i32, ...) @rb_funcall(i64 noundef %35, i64 noundef %.lcssa.i, i32 noundef 3, i64 noundef %11, i64 noundef %41, i64 noundef %14) #5
  br i1 %2, label %43, label %45

43:                                               ; preds = %rbimpl_intern_const.exit
  %44 = tail call i64 @rb_obj_freeze(i64 noundef %42) #5
  br label %45

45:                                               ; preds = %43, %rbimpl_intern_const.exit
  ret i64 %42
}